target datalayout = "e-m:e-p270:32:32-p271:32:32-p272:64:64-i64:64-i128:128-f80:128-n8:16:32:64-S128"
target triple = "x86_64-pc-linux-gnu"

%struct.dictType = type { ptr, ptr, ptr, ptr, ptr, ptr, ptr, ptr, ptr, ptr, ptr, i8, ptr, ptr, ptr }
%struct.dict = type { ptr, [2 x ptr], [2 x i64], i64, i16, [2 x i8], i16, [0 x ptr] }

@dict_can_resize = internal global i32 0, align 4
@dict_force_resize_ratio = internal global i32 4, align 4

; Function Attrs: nounwind uwtable
define internal signext i8 @_dictNextExp(i64 noundef %0) #0 {
  %2 = alloca i8, align 1
  %3 = alloca i64, align 8
  store i64 %0, ptr %3, align 8, !tbaa !11
  %4 = load i64, ptr %3, align 8, !tbaa !11
  %5 = icmp ule i64 %4, 4
  br i1 %5, label %6, label %7

6:                                                ; preds = %1
  store i8 2, ptr %2, align 1
  br label %19

7:                                                ; preds = %1
  %8 = load i64, ptr %3, align 8, !tbaa !11
  %9 = icmp uge i64 %8, 9223372036854775807
  br i1 %9, label %10, label %11

10:                                               ; preds = %7
  store i8 63, ptr %2, align 1
  br label %19

11:                                               ; preds = %7
  %12 = load i64, ptr %3, align 8, !tbaa !11
  %13 = sub i64 %12, 1
  %14 = call i64 @llvm.ctlz.i64(i64 %13, i1 true)
  %15 = trunc i64 %14 to i32
  %16 = sext i32 %15 to i64
  %17 = sub i64 64, %16
  %18 = trunc i64 %17 to i8
  store i8 %18, ptr %2, align 1
  br label %19

19:                                               ; preds = %11, %10, %6
  %20 = load i8, ptr %2, align 1
  ret i8 %20
}

; Function Attrs: nounwind uwtable
define dso_local i32 @dictShrink(ptr noundef %0, i64 noundef %1) #0 {
  %3 = alloca i32, align 4
  %4 = alloca ptr, align 8
  %5 = alloca i64, align 8
  store ptr %0, ptr %4, align 8, !tbaa !18
  store i64 %1, ptr %5, align 8, !tbaa !11
  %6 = load ptr, ptr %4, align 8, !tbaa !18
  %7 = getelementptr inbounds nuw %struct.dict, ptr %6, i32 0, i32 3
  %8 = load i64, ptr %7, align 8, !tbaa !11
  %9 = icmp ne i64 %8, -1
  br i1 %9, label %37, label %10

10:                                               ; preds = %2
  %11 = load ptr, ptr %4, align 8, !tbaa !18
  %12 = getelementptr inbounds nuw %struct.dict, ptr %11, i32 0, i32 2
  %13 = getelementptr inbounds [2 x i64], ptr %12, i64 0, i64 0
  %14 = load i64, ptr %13, align 8, !tbaa !11
  %15 = load i64, ptr %5, align 8, !tbaa !11
  %16 = icmp ugt i64 %14, %15
  br i1 %16, label %37, label %17

17:                                               ; preds = %10
  %18 = load ptr, ptr %4, align 8, !tbaa !18
  %19 = getelementptr inbounds nuw %struct.dict, ptr %18, i32 0, i32 5
  %20 = getelementptr inbounds [2 x i8], ptr %19, i64 0, i64 0
  %21 = load i8, ptr %20, align 2, !tbaa !25
  %22 = sext i8 %21 to i32
  %23 = icmp eq i32 %22, -1
  br i1 %23, label %24, label %25

24:                                               ; preds = %17
  br label %33

25:                                               ; preds = %17
  %26 = load ptr, ptr %4, align 8, !tbaa !18
  %27 = getelementptr inbounds nuw %struct.dict, ptr %26, i32 0, i32 5
  %28 = getelementptr inbounds [2 x i8], ptr %27, i64 0, i64 0
  %29 = load i8, ptr %28, align 2, !tbaa !25
  %30 = sext i8 %29 to i32
  %31 = zext i32 %30 to i64
  %32 = shl i64 1, %31
  br label %33

33:                                               ; preds = %25, %24
  %34 = phi i64 [ 0, %24 ], [ %32, %25 ]
  %35 = load i64, ptr %5, align 8, !tbaa !11
  %36 = icmp ule i64 %34, %35
  br i1 %36, label %37, label %38

37:                                               ; preds = %33, %10, %2
  store i32 1, ptr %3, align 4
  br label %42

38:                                               ; preds = %33
  %39 = load ptr, ptr %4, align 8, !tbaa !18
  %40 = load i64, ptr %5, align 8, !tbaa !11
  %41 = call i32 @_dictResize(ptr noundef %39, i64 noundef %40, ptr noundef null)
  store i32 %41, ptr %3, align 4
  br label %42

42:                                               ; preds = %38, %37
  %43 = load i32, ptr %3, align 4
  ret i32 %43
}

; Function Attrs: nounwind uwtable
define internal i32 @dictTypeResizeAllowed(ptr noundef %0, i64 noundef %1) #0 {
  %3 = alloca i32, align 4
  %4 = alloca ptr, align 8
  %5 = alloca i64, align 8
  store ptr %0, ptr %4, align 8, !tbaa !18
  store i64 %1, ptr %5, align 8, !tbaa !11
  %6 = load ptr, ptr %4, align 8, !tbaa !18
  %7 = getelementptr inbounds nuw %struct.dict, ptr %6, i32 0, i32 0
  %8 = load ptr, ptr %7, align 8, !tbaa !13
  %9 = getelementptr inbounds nuw %struct.dictType, ptr %8, i32 0, i32 6
  %10 = load ptr, ptr %9, align 8, !tbaa !106
  %11 = icmp eq ptr %10, null
  br i1 %11, label %12, label %13

12:                                               ; preds = %2
  store i32 1, ptr %3, align 4
  br label %58

13:                                               ; preds = %2
  %14 = load ptr, ptr %4, align 8, !tbaa !18
  %15 = getelementptr inbounds nuw %struct.dict, ptr %14, i32 0, i32 0
  %16 = load ptr, ptr %15, align 8, !tbaa !13
  %17 = getelementptr inbounds nuw %struct.dictType, ptr %16, i32 0, i32 6
  %18 = load ptr, ptr %17, align 8, !tbaa !106
  %19 = load i64, ptr %5, align 8, !tbaa !11
  %20 = call signext i8 @_dictNextExp(i64 noundef %19)
  %21 = sext i8 %20 to i32
  %22 = icmp eq i32 %21, -1
  br i1 %22, label %23, label %24

23:                                               ; preds = %13
  br label %30

24:                                               ; preds = %13
  %25 = load i64, ptr %5, align 8, !tbaa !11
  %26 = call signext i8 @_dictNextExp(i64 noundef %25)
  %27 = sext i8 %26 to i32
  %28 = zext i32 %27 to i64
  %29 = shl i64 1, %28
  br label %30

30:                                               ; preds = %24, %23
  %31 = phi i64 [ 0, %23 ], [ %29, %24 ]
  %32 = mul i64 %31, 8
  %33 = load ptr, ptr %4, align 8, !tbaa !18
  %34 = getelementptr inbounds nuw %struct.dict, ptr %33, i32 0, i32 2
  %35 = getelementptr inbounds [2 x i64], ptr %34, i64 0, i64 0
  %36 = load i64, ptr %35, align 8, !tbaa !11
  %37 = uitofp i64 %36 to double
  %38 = load ptr, ptr %4, align 8, !tbaa !18
  %39 = getelementptr inbounds nuw %struct.dict, ptr %38, i32 0, i32 5
  %40 = getelementptr inbounds [2 x i8], ptr %39, i64 0, i64 0
  %41 = load i8, ptr %40, align 2, !tbaa !25
  %42 = sext i8 %41 to i32
  %43 = icmp eq i32 %42, -1
  br i1 %43, label %44, label %45

44:                                               ; preds = %30
  br label %53

45:                                               ; preds = %30
  %46 = load ptr, ptr %4, align 8, !tbaa !18
  %47 = getelementptr inbounds nuw %struct.dict, ptr %46, i32 0, i32 5
  %48 = getelementptr inbounds [2 x i8], ptr %47, i64 0, i64 0
  %49 = load i8, ptr %48, align 2, !tbaa !25
  %50 = sext i8 %49 to i32
  %51 = zext i32 %50 to i64
  %52 = shl i64 1, %51
  br label %53

53:                                               ; preds = %45, %44
  %54 = phi i64 [ 0, %44 ], [ %52, %45 ]
  %55 = uitofp i64 %54 to double
  %56 = fdiv double %37, %55
  %57 = call i32 %18(i64 noundef %32, double noundef %56)
  store i32 %57, ptr %3, align 4
  br label %58

58:                                               ; preds = %53, %12
  %59 = load i32, ptr %3, align 4
  ret i32 %59
}

; Function Attrs: nounwind uwtable
define dso_local i32 @dictShrinkIfNeeded(ptr noundef %0) #0 {
  %2 = alloca i32, align 4
  %3 = alloca ptr, align 8
  store ptr %0, ptr %3, align 8, !tbaa !18
  %4 = load ptr, ptr %3, align 8, !tbaa !18
  %5 = getelementptr inbounds nuw %struct.dict, ptr %4, i32 0, i32 3
  %6 = load i64, ptr %5, align 8, !tbaa !11
  %7 = icmp ne i64 %6, -1
  br i1 %7, label %8, label %9

8:                                                ; preds = %1
  store i32 0, ptr %2, align 4
  br label %103

9:                                                ; preds = %1
  %10 = load ptr, ptr %3, align 8, !tbaa !18
  %11 = getelementptr inbounds nuw %struct.dict, ptr %10, i32 0, i32 5
  %12 = getelementptr inbounds [2 x i8], ptr %11, i64 0, i64 0
  %13 = load i8, ptr %12, align 2, !tbaa !25
  %14 = sext i8 %13 to i32
  %15 = icmp eq i32 %14, -1
  br i1 %15, label %16, label %17

16:                                               ; preds = %9
  br label %25

17:                                               ; preds = %9
  %18 = load ptr, ptr %3, align 8, !tbaa !18
  %19 = getelementptr inbounds nuw %struct.dict, ptr %18, i32 0, i32 5
  %20 = getelementptr inbounds [2 x i8], ptr %19, i64 0, i64 0
  %21 = load i8, ptr %20, align 2, !tbaa !25
  %22 = sext i8 %21 to i32
  %23 = zext i32 %22 to i64
  %24 = shl i64 1, %23
  br label %25

25:                                               ; preds = %17, %16
  %26 = phi i64 [ 0, %16 ], [ %24, %17 ]
  %27 = icmp ule i64 %26, 4
  br i1 %27, label %28, label %29

28:                                               ; preds = %25
  store i32 0, ptr %2, align 4
  br label %103

29:                                               ; preds = %25
  %30 = load i32, ptr @dict_can_resize, align 4, !tbaa !29
  %31 = icmp eq i32 %30, 0
  br i1 %31, label %32, label %56

32:                                               ; preds = %29
  %33 = load ptr, ptr %3, align 8, !tbaa !18
  %34 = getelementptr inbounds nuw %struct.dict, ptr %33, i32 0, i32 2
  %35 = getelementptr inbounds [2 x i64], ptr %34, i64 0, i64 0
  %36 = load i64, ptr %35, align 8, !tbaa !11
  %37 = mul i64 %36, 8
  %38 = load ptr, ptr %3, align 8, !tbaa !18
  %39 = getelementptr inbounds nuw %struct.dict, ptr %38, i32 0, i32 5
  %40 = getelementptr inbounds [2 x i8], ptr %39, i64 0, i64 0
  %41 = load i8, ptr %40, align 2, !tbaa !25
  %42 = sext i8 %41 to i32
  %43 = icmp eq i32 %42, -1
  br i1 %43, label %44, label %45

44:                                               ; preds = %32
  br label %53

45:                                               ; preds = %32
  %46 = load ptr, ptr %3, align 8, !tbaa !18
  %47 = getelementptr inbounds nuw %struct.dict, ptr %46, i32 0, i32 5
  %48 = getelementptr inbounds [2 x i8], ptr %47, i64 0, i64 0
  %49 = load i8, ptr %48, align 2, !tbaa !25
  %50 = sext i8 %49 to i32
  %51 = zext i32 %50 to i64
  %52 = shl i64 1, %51
  br label %53

53:                                               ; preds = %45, %44
  %54 = phi i64 [ 0, %44 ], [ %52, %45 ]
  %55 = icmp ule i64 %37, %54
  br i1 %55, label %86, label %56

56:                                               ; preds = %53, %29
  %57 = load i32, ptr @dict_can_resize, align 4, !tbaa !29
  %58 = icmp ne i32 %57, 2
  br i1 %58, label %59, label %102

59:                                               ; preds = %56
  %60 = load ptr, ptr %3, align 8, !tbaa !18
  %61 = getelementptr inbounds nuw %struct.dict, ptr %60, i32 0, i32 2
  %62 = getelementptr inbounds [2 x i64], ptr %61, i64 0, i64 0
  %63 = load i64, ptr %62, align 8, !tbaa !11
  %64 = mul i64 %63, 8
  %65 = load i32, ptr @dict_force_resize_ratio, align 4, !tbaa !29
  %66 = zext i32 %65 to i64
  %67 = mul i64 %64, %66
  %68 = load ptr, ptr %3, align 8, !tbaa !18
  %69 = getelementptr inbounds nuw %struct.dict, ptr %68, i32 0, i32 5
  %70 = getelementptr inbounds [2 x i8], ptr %69, i64 0, i64 0
  %71 = load i8, ptr %70, align 2, !tbaa !25
  %72 = sext i8 %71 to i32
  %73 = icmp eq i32 %72, -1
  br i1 %73, label %74, label %75

74:                                               ; preds = %59
  br label %83

75:                                               ; preds = %59
  %76 = load ptr, ptr %3, align 8, !tbaa !18
  %77 = getelementptr inbounds nuw %struct.dict, ptr %76, i32 0, i32 5
  %78 = getelementptr inbounds [2 x i8], ptr %77, i64 0, i64 0
  %79 = load i8, ptr %78, align 2, !tbaa !25
  %80 = sext i8 %79 to i32
  %81 = zext i32 %80 to i64
  %82 = shl i64 1, %81
  br label %83

83:                                               ; preds = %75, %74
  %84 = phi i64 [ 0, %74 ], [ %82, %75 ]
  %85 = icmp ule i64 %67, %84
  br i1 %85, label %86, label %102

86:                                               ; preds = %83, %53
  %87 = load ptr, ptr %3, align 8, !tbaa !18
  %88 = load ptr, ptr %3, align 8, !tbaa !18
  %89 = getelementptr inbounds nuw %struct.dict, ptr %88, i32 0, i32 2
  %90 = getelementptr inbounds [2 x i64], ptr %89, i64 0, i64 0
  %91 = load i64, ptr %90, align 8, !tbaa !11
  %92 = call i32 @dictTypeResizeAllowed(ptr noundef %87, i64 noundef %91)
  %93 = icmp ne i32 %92, 0
  br i1 %93, label %94, label %101

94:                                               ; preds = %86
  %95 = load ptr, ptr %3, align 8, !tbaa !18
  %96 = load ptr, ptr %3, align 8, !tbaa !18
  %97 = getelementptr inbounds nuw %struct.dict, ptr %96, i32 0, i32 2
  %98 = getelementptr inbounds [2 x i64], ptr %97, i64 0, i64 0
  %99 = load i64, ptr %98, align 8, !tbaa !11
  %100 = call i32 @dictShrink(ptr noundef %95, i64 noundef %99)
  br label %101

101:                                              ; preds = %94, %86
  store i32 0, ptr %2, align 4
  br label %103

102:                                              ; preds = %83, %56
  store i32 1, ptr %2, align 4
  br label %103

103:                                              ; preds = %102, %101, %28, %8
  %104 = load i32, ptr %2, align 4
  ret i32 %104
}