; Function Attrs: nounwind uwtable
define dso_local range(i32 0, 2) i32 @dictShrinkIfNeeded(ptr noundef %0) local_unnamed_addr #3 {
  %2 = getelementptr inbounds nuw i8, ptr %0, i64 40
  %3 = load i64, ptr %2, align 8, !tbaa !14
  %.not = icmp eq i64 %3, -1
  br i1 %.not, label %4, label %dictShrink.exit

4:                                                ; preds = %1
  %5 = getelementptr inbounds nuw i8, ptr %0, i64 50
  %6 = load i8, ptr %5, align 2, !tbaa !13
  %7 = icmp eq i8 %6, -1
  %8 = sext i8 %6 to i64
  %9 = and i64 %8, 4294967295
  %10 = icmp samesign ult i64 %9, 3
  %11 = select i1 %7, i1 true, i1 %10
  br i1 %11, label %dictShrink.exit, label %12

12:                                               ; preds = %4
  %13 = load i32, ptr @dict_can_resize, align 4, !tbaa !26
  switch i32 %13, label %..thread_crit_edge [
    i32 0, label %14
    i32 2, label %dictShrink.exit
  ]

..thread_crit_edge:                               ; preds = %12
  %.phi.trans.insert = getelementptr inbounds nuw i8, ptr %0, i64 24
  %.pre = load i64, ptr %.phi.trans.insert, align 8, !tbaa !14
  %.pre26 = shl nuw i64 1, %9
  br label %.thread

14:                                               ; preds = %12
  %15 = getelementptr inbounds nuw i8, ptr %0, i64 24
  %16 = load i64, ptr %15, align 8, !tbaa !14
  %17 = shl i64 %16, 3
  %18 = shl nuw i64 1, %9
  %.not16 = icmp ugt i64 %17, %18
  br i1 %.not16, label %.thread, label %21

.thread:                                          ; preds = %..thread_crit_edge, %14
  %.pre-phi = phi i64 [ %.pre26, %..thread_crit_edge ], [ %18, %14 ]
  %19 = phi i64 [ %.pre, %..thread_crit_edge ], [ %16, %14 ]
  %20 = shl i64 %19, 5
  %.not18 = icmp ugt i64 %20, %.pre-phi
  br i1 %.not18, label %dictShrink.exit, label %21

21:                                               ; preds = %.thread, %14
  %22 = phi i64 [ %19, %.thread ], [ %16, %14 ]
  %23 = getelementptr inbounds nuw i8, ptr %0, i64 24
  %24 = load ptr, ptr %0, align 8, !tbaa !16
  %25 = getelementptr inbounds nuw i8, ptr %24, i64 48
  %26 = load ptr, ptr %25, align 8, !tbaa !94
  %27 = icmp eq ptr %26, null
  br i1 %27, label %dictTypeResizeAllowed.exit.thread.thread, label %28

28:                                               ; preds = %21
  %29 = icmp ult i64 %22, 5
  br i1 %29, label %dictTypeResizeAllowed.exit, label %30

30:                                               ; preds = %28
  %31 = icmp ugt i64 %22, 9223372036854775806
  br i1 %31, label %dictTypeResizeAllowed.exit, label %32

32:                                               ; preds = %30
  %33 = add nsw i64 %22, -1
  %34 = tail call range(i64 0, 65) i64 @llvm.ctlz.i64(i64 %33, i1 true)
  %35 = sub nuw nsw i64 64, %34
  br label %dictTypeResizeAllowed.exit

dictTypeResizeAllowed.exit:                       ; preds = %28, %30, %32
  %.0.i9.i = phi i64 [ %35, %32 ], [ 2, %28 ], [ 63, %30 ]
  %36 = shl i64 8, %.0.i9.i
  %37 = uitofp i64 %22 to double
  %38 = shl nuw i64 1, %9
  %39 = uitofp i64 %38 to double
  %40 = fdiv double %37, %39
  %41 = tail call i32 %26(i64 noundef %36, double noundef %40) #25
  %.not19 = icmp eq i32 %41, 0
  br i1 %.not19, label %dictShrink.exit, label %dictTypeResizeAllowed.exit.thread

dictTypeResizeAllowed.exit.thread:                ; preds = %dictTypeResizeAllowed.exit
  %.pre24 = load i64, ptr %23, align 8, !tbaa !14
  %.pre25 = load i64, ptr %2, align 8, !tbaa !14
  %42 = icmp eq i64 %.pre25, -1
  br i1 %42, label %dictTypeResizeAllowed.exit.thread.thread, label %dictShrink.exit

dictTypeResizeAllowed.exit.thread.thread:         ; preds = %21, %dictTypeResizeAllowed.exit.thread
  %43 = phi i64 [ %.pre24, %dictTypeResizeAllowed.exit.thread ], [ %22, %21 ]
  %44 = load i8, ptr %5, align 2, !tbaa !13
  %45 = icmp ne i8 %44, -1
  %46 = sext i8 %44 to i64
  %47 = and i64 %46, 4294967295
  %.highbits.i = lshr i64 %43, %47
  %.not1011.i = icmp eq i64 %.highbits.i, 0
  %.not10.i = select i1 %45, i1 %.not1011.i, i1 false
  br i1 %.not10.i, label %48, label %dictShrink.exit

48:                                               ; preds = %dictTypeResizeAllowed.exit.thread.thread
  %49 = tail call i32 @_dictResize(ptr noundef nonnull %0, i64 noundef %43, ptr noundef null)
  br label %dictShrink.exit

dictShrink.exit:                                  ; preds = %12, %48, %dictTypeResizeAllowed.exit.thread.thread, %dictTypeResizeAllowed.exit.thread, %.thread, %dictTypeResizeAllowed.exit, %4, %1
  %.0 = phi i32 [ 0, %1 ], [ 0, %4 ], [ 0, %dictTypeResizeAllowed.exit ], [ 1, %.thread ], [ 0, %dictTypeResizeAllowed.exit.thread ], [ 0, %dictTypeResizeAllowed.exit.thread.thread ], [ 0, %48 ], [ 1, %12 ]
  ret i32 %.0
}